Certificate:
    Data:
        Version: 3 (0x2)
        Serial Number:
            51:05:64:59:51:f7:e5:15:cc:f1:8f:2c:d2:e5:4d:a3:23:41:8e:88
        Signature Algorithm: sha256WithRSAEncryption
        Issuer: C=AU, ST=TX, O=TCU, OU=CS, CN=tcu.edu/emailAddress=df
        Validity
            Not Before: Jan 30 02:11:54 2020 GMT
            Not After : Jan 29 02:11:54 2023 GMT
        Subject: C=AU, ST=TX, O=TCU, OU=CS, CN=tcu.edu/emailAddress=df
        Subject Public Key Info:
            Public Key Algorithm: rsaEncryption
                RSA Public-Key: (2048 bit)
                Modulus:
                    00:bb:dc:76:b8:10:f3:1a:66:99:7d:3b:71:38:42:
                    fb:7b:bf:1e:0a:75:58:17:39:78:9a:9f:e0:43:45:
                    5a:a1:be:d6:01:25:1e:5d:93:ac:4b:42:3a:ae:75:
                    6c:2f:27:91:7a:e6:0b:e1:09:b7:c8:65:c0:7e:4b:
                    b7:ed:e9:a6:1a:6f:56:84:24:41:3b:2f:39:31:5a:
                    0b:8b:6a:3f:97:37:41:70:0d:d8:1c:9d:e2:31:be:
                    b5:c3:73:9e:6e:61:18:1a:9a:85:e3:98:0d:61:aa:
                    3d:3a:75:fc:c2:e1:84:3e:4c:14:3d:57:c9:ed:27:
                    82:04:77:2c:99:1d:12:e3:58:dc:5e:7d:d6:a5:ee:
                    f6:a3:4b:c2:f8:b2:6e:f6:e5:32:ba:43:24:76:cf:
                    6d:a0:5d:3e:d8:ce:74:70:ee:61:84:07:e2:eb:67:
                    1e:32:3b:ae:dc:39:d4:7e:62:ec:5b:95:dc:fa:b2:
                    52:b0:ef:8c:64:68:fe:0f:ad:1c:bf:0e:85:a4:74:
                    2d:dd:dc:1c:95:f5:6d:41:ff:e4:69:d1:e4:a1:fe:
                    94:0f:15:01:f0:af:ab:51:8c:2e:dd:9a:ad:a4:68:
                    16:f6:32:3a:05:45:d5:1d:d7:4d:bf:d2:15:02:ea:
                    65:d7:98:5a:c8:5a:92:68:30:34:b1:f3:5e:ac:25:
                    ea:87
                Exponent: 65537 (0x10001)
        X509v3 extensions:
            X509v3 Subject Key Identifier: 
                00:1F:D8:1E:2B:3B:1C:02:82:2B:63:0F:CD:3D:3A:46:10:93:B5:14
            X509v3 Authority Key Identifier: 
                keyid:00:1F:D8:1E:2B:3B:1C:02:82:2B:63:0F:CD:3D:3A:46:10:93:B5:14

            X509v3 Basic Constraints: critical
                CA:TRUE
    Signature Algorithm: sha256WithRSAEncryption
         7a:47:3b:9f:49:62:b5:3d:50:65:1c:6b:02:e0:f7:45:e7:1d:
         44:3f:c2:45:0c:08:5a:64:2a:73:c1:1a:6f:af:03:38:12:da:
         65:6d:dc:fb:a4:46:1b:e9:08:1e:bf:4b:7d:06:b0:75:d6:58:
         7b:7d:fc:78:48:1c:1b:8a:96:d0:43:11:f8:f2:85:b6:96:de:
         a3:a3:cf:21:6a:8d:1a:24:af:b3:a2:e7:e2:f0:d3:b4:4f:74:
         11:5b:73:41:99:e9:73:15:6a:a0:61:45:ba:ce:ba:5b:f7:2a:
         1d:1c:33:ad:da:54:e8:cf:c0:5a:93:90:32:44:6f:25:5f:cf:
         25:f8:60:93:3d:e7:41:3b:8e:af:ca:4b:24:3b:04:19:7b:c1:
         2a:4c:5e:ec:d5:60:b6:d7:f5:cd:72:37:c7:50:d9:4a:e3:7f:
         e8:15:05:35:c2:3b:56:08:54:3e:b2:cc:0d:37:00:2d:3a:11:
         79:97:1a:f7:fe:4e:94:1b:9f:4b:aa:f0:2f:f6:a2:e6:e2:7b:
         15:da:a6:30:af:b1:d0:e6:24:20:fa:f2:e7:db:a0:68:02:ba:
         0a:e3:16:f6:84:8d:8d:50:32:e4:88:91:2b:1a:16:7c:d0:e1:
         dd:23:21:8f:5a:d1:44:cc:fd:24:1a:73:b3:79:22:13:d4:8d:
         f8:4a:62:68
-----BEGIN CERTIFICATE-----
MIIDlTCCAn2gAwIBAgIUUQVkWVH35RXM8Y8s0uVNoyNBjogwDQYJKoZIhvcNAQEL
BQAwWjELMAkGA1UEBhMCQVUxCzAJBgNVBAgMAlRYMQwwCgYDVQQKDANUQ1UxCzAJ
BgNVBAsMAkNTMRAwDgYDVQQDDAd0Y3UuZWR1MREwDwYJKoZIhvcNAQkBFgJkZjAe
Fw0yMDAxMzAwMjExNTRaFw0yMzAxMjkwMjExNTRaMFoxCzAJBgNVBAYTAkFVMQsw
CQYDVQQIDAJUWDEMMAoGA1UECgwDVENVMQswCQYDVQQLDAJDUzEQMA4GA1UEAwwH
dGN1LmVkdTERMA8GCSqGSIb3DQEJARYCZGYwggEiMA0GCSqGSIb3DQEBAQUAA4IB
DwAwggEKAoIBAQC73Ha4EPMaZpl9O3E4Qvt7vx4KdVgXOXian+BDRVqhvtYBJR5d
k6xLQjqudWwvJ5F65gvhCbfIZcB+S7ft6aYab1aEJEE7LzkxWguLaj+XN0FwDdgc
neIxvrXDc55uYRgamoXjmA1hqj06dfzC4YQ+TBQ9V8ntJ4IEdyyZHRLjWNxefdal
7vajS8L4sm725TK6QyR2z22gXT7YznRw7mGEB+LrZx4yO67cOdR+Yuxbldz6slKw
74xkaP4PrRy/DoWkdC3d3ByV9W1B/+Rp0eSh/pQPFQHwr6tRjC7dmq2kaBb2MjoF
RdUd102/0hUC6mXXmFrIWpJoMDSx816sJeqHAgMBAAGjUzBRMB0GA1UdDgQWBBQA
H9geKzscAoIrYw/NPTpGEJO1FDAfBgNVHSMEGDAWgBQAH9geKzscAoIrYw/NPTpG
EJO1FDAPBgNVHRMBAf8EBTADAQH/MA0GCSqGSIb3DQEBCwUAA4IBAQB6RzufSWK1
PVBlHGsC4PdF5x1EP8JFDAhaZCpzwRpvrwM4Etplbdz7pEYb6Qgev0t9BrB11lh7
ffx4SBwbipbQQxH48oW2lt6jo88hao0aJK+zoufi8NO0T3QRW3NBmelzFWqgYUW6
zrpb9yodHDOt2lToz8Bak5AyRG8lX88l+GCTPedBO46vykskOwQZe8EqTF7s1WC2
1/XNcjfHUNlK43/oFQU1wjtWCFQ+sswNNwAtOhF5lxr3/k6UG59LqvAv9qLm4nsV
2qYwr7HQ5iQg+vLn26BoAroK4xb2hI2NUDLkiJErGhZ80OHdIyGPWtFEzP0kGnOz
eSIT1I34SmJo
-----END CERTIFICATE-----
