Certificate:
    Data:
        Version: 3 (0x2)
        Serial Number:
            51:05:64:59:51:f7:e5:15:cc:f1:8f:2c:d2:e5:4d:a3:23:41:8e:89
        Signature Algorithm: sha256WithRSAEncryption
        Issuer: C=AU, ST=TX, O=TCU, OU=CS, CN=tcu.edu/emailAddress=df
        Validity
            Not Before: Jan 30 02:18:21 2020 GMT
            Not After : Jan 29 02:18:21 2021 GMT
        Subject: C=AU, ST=TX, L=FW, O=TCU, OU=COSC, CN=127.0.0.1/emailAddress=fg
        Subject Public Key Info:
            Public Key Algorithm: rsaEncryption
                RSA Public-Key: (2048 bit)
                Modulus:
                    00:cb:9a:62:12:6c:de:63:fd:87:b5:3b:8e:e7:29:
                    89:1a:cb:27:1f:ef:e0:54:52:51:76:b8:b7:7b:2c:
                    b1:06:7c:f9:fb:ea:13:f4:df:8a:b9:74:78:9b:e6:
                    0d:37:8b:3d:00:24:af:62:6a:b4:a8:3b:0b:1d:0f:
                    1f:a9:0d:e9:ca:b0:e4:8b:05:82:e7:4c:83:16:e2:
                    55:c8:8f:52:8a:67:71:6f:41:32:00:ad:06:45:1a:
                    f0:89:39:4d:22:ed:5a:a6:36:0b:80:ab:15:4b:0b:
                    72:f2:00:fa:f9:72:0f:50:4a:fc:cf:6b:3f:5e:9a:
                    33:d2:0d:7a:9e:83:66:2b:55:34:b0:f1:7f:a7:51:
                    57:2b:52:7a:45:36:38:5e:a3:8e:01:0d:50:a8:05:
                    d7:64:09:fa:18:89:f0:ba:6d:18:59:a9:fb:ce:12:
                    fc:b9:b7:dd:d1:62:d6:7e:4a:9d:c7:50:17:32:ef:
                    39:7e:eb:dc:12:a2:19:0c:db:04:a2:52:be:b7:47:
                    f7:ce:72:52:b6:cc:01:bb:7d:56:cb:20:0f:73:79:
                    0a:c5:31:aa:b0:bf:7a:17:cb:38:b1:e8:08:a3:0a:
                    48:9e:ae:f2:22:bc:1e:80:fb:84:af:a7:e2:a7:6e:
                    65:7b:91:18:54:43:3d:7c:f8:9c:63:df:65:bd:52:
                    55:b3
                Exponent: 65537 (0x10001)
        X509v3 extensions:
            X509v3 Basic Constraints: 
                CA:FALSE
            Netscape Comment: 
                OpenSSL Generated Certificate
            X509v3 Subject Key Identifier: 
                FE:03:A9:08:97:98:C3:A4:29:72:E9:11:2B:84:32:8F:8C:79:E8:8B
            X509v3 Authority Key Identifier: 
                keyid:00:1F:D8:1E:2B:3B:1C:02:82:2B:63:0F:CD:3D:3A:46:10:93:B5:14

    Signature Algorithm: sha256WithRSAEncryption
         67:51:71:d0:70:f1:30:c0:61:2b:57:c0:4d:19:52:54:26:19:
         8f:c8:33:a8:9a:05:5a:7d:ed:78:2c:c5:42:8d:8c:fc:2f:97:
         13:be:1c:77:3e:3a:9c:00:1c:42:c7:f4:81:65:73:7a:3a:65:
         03:5f:6c:df:dc:d8:8a:04:04:7b:2e:ef:6b:0b:30:15:71:d1:
         cb:e2:51:5e:45:87:ae:47:da:ec:08:15:70:74:a7:fd:7d:88:
         d5:b9:8c:89:25:5a:11:05:6d:e6:c3:66:b7:1d:97:37:c3:21:
         20:ac:4f:8f:3a:00:ae:ac:db:69:f8:bc:b3:4c:9e:05:da:7b:
         39:10:91:18:34:27:35:f0:6e:5c:1f:7d:6c:45:f6:4a:83:b4:
         cd:57:69:9e:4f:49:f5:7e:6a:5a:7a:4b:2a:87:83:1e:53:6c:
         85:31:f0:f2:20:a5:e3:3f:2b:0e:a7:0f:24:ec:9a:cc:40:ee:
         a4:69:1e:a3:71:f7:32:eb:ec:6e:9d:55:80:df:b3:96:8f:7b:
         f2:b4:0e:2e:22:81:a4:94:3b:fe:b2:5f:ff:be:55:e4:70:fa:
         fb:82:5b:65:d1:1e:3c:df:23:af:04:05:69:20:27:fb:2f:b2:
         15:d9:50:70:5d:ad:48:e6:04:e5:11:93:16:fe:93:55:6c:9d:
         74:06:36:bc
-----BEGIN CERTIFICATE-----
MIIDzjCCAragAwIBAgIUUQVkWVH35RXM8Y8s0uVNoyNBjokwDQYJKoZIhvcNAQEL
BQAwWjELMAkGA1UEBhMCQVUxCzAJBgNVBAgMAlRYMQwwCgYDVQQKDANUQ1UxCzAJ
BgNVBAsMAkNTMRAwDgYDVQQDDAd0Y3UuZWR1MREwDwYJKoZIhvcNAQkBFgJkZjAe
Fw0yMDAxMzAwMjE4MjFaFw0yMTAxMjkwMjE4MjFaMGsxCzAJBgNVBAYTAkFVMQsw
CQYDVQQIDAJUWDELMAkGA1UEBwwCRlcxDDAKBgNVBAoMA1RDVTENMAsGA1UECwwE
Q09TQzESMBAGA1UEAwwJMTI3LjAuMC4xMREwDwYJKoZIhvcNAQkBFgJmZzCCASIw
DQYJKoZIhvcNAQEBBQADggEPADCCAQoCggEBAMuaYhJs3mP9h7U7jucpiRrLJx/v
4FRSUXa4t3sssQZ8+fvqE/Tfirl0eJvmDTeLPQAkr2JqtKg7Cx0PH6kN6cqw5IsF
gudMgxbiVciPUopncW9BMgCtBkUa8Ik5TSLtWqY2C4CrFUsLcvIA+vlyD1BK/M9r
P16aM9INep6DZitVNLDxf6dRVytSekU2OF6jjgENUKgF12QJ+hiJ8LptGFmp+84S
/Lm33dFi1n5KncdQFzLvOX7r3BKiGQzbBKJSvrdH985yUrbMAbt9VssgD3N5CsUx
qrC/ehfLOLHoCKMKSJ6u8iK8HoD7hK+n4qduZXuRGFRDPXz4nGPfZb1SVbMCAwEA
AaN7MHkwCQYDVR0TBAIwADAsBglghkgBhvhCAQ0EHxYdT3BlblNTTCBHZW5lcmF0
ZWQgQ2VydGlmaWNhdGUwHQYDVR0OBBYEFP4DqQiXmMOkKXLpESuEMo+MeeiLMB8G
A1UdIwQYMBaAFAAf2B4rOxwCgitjD809OkYQk7UUMA0GCSqGSIb3DQEBCwUAA4IB
AQBnUXHQcPEwwGErV8BNGVJUJhmPyDOomgVafe14LMVCjYz8L5cTvhx3PjqcABxC
x/SBZXN6OmUDX2zf3NiKBAR7Lu9rCzAVcdHL4lFeRYeuR9rsCBVwdKf9fYjVuYyJ
JVoRBW3mw2a3HZc3wyEgrE+POgCurNtp+LyzTJ4F2ns5EJEYNCc18G5cH31sRfZK
g7TNV2meT0n1fmpaeksqh4MeU2yFMfDyIKXjPysOpw8k7JrMQO6kaR6jcfcy6+xu
nVWA37OWj3vytA4uIoGklDv+sl//vlXkcPr7gltl0R483yOvBAVpICf7L7IV2VBw
Xa1I5gTlEZMW/pNVbJ10Bja8
-----END CERTIFICATE-----
