Certificate:
    Data:
        Version: 3 (0x2)
        Serial Number:
            9e:be:3f:b9:87:36:81:52:92:19:c7:8a:70:27:57:0b
        Signature Algorithm: sha256WithRSAEncryption
        Issuer: CN=MaVPN
        Validity
            Not Before: Jan  6 03:31:10 2020 GMT
            Not After : Dec 21 03:31:10 2022 GMT
        Subject: CN=client
        Subject Public Key Info:
            Public Key Algorithm: rsaEncryption
                RSA Public-Key: (2048 bit)
                Modulus:
                    00:b6:aa:15:06:16:1a:ca:e1:99:8d:ef:35:72:b0:
                    b0:f5:78:bb:cf:5e:c3:ed:a3:8a:16:9d:29:d3:2a:
                    81:6a:d5:e6:09:fa:01:57:a9:86:94:78:9f:0f:97:
                    15:ab:48:5f:51:4a:62:2d:fa:be:74:67:9b:d4:ef:
                    de:2c:a4:d2:64:fb:25:b3:a7:fc:86:d3:50:3a:0d:
                    71:58:00:6d:65:ca:25:6e:8a:84:69:bd:31:a3:47:
                    9f:8b:89:1f:ad:aa:dd:01:17:6e:29:f8:5d:dc:56:
                    17:f2:0f:6c:74:49:56:07:c9:f7:97:51:b4:fb:6d:
                    75:14:58:b3:4b:78:24:b1:d1:54:ff:6f:cf:15:a9:
                    2d:e4:f5:8e:64:a4:b5:6f:eb:3f:2d:9d:63:49:bc:
                    08:0b:38:a6:5d:31:bd:cd:f8:d8:95:aa:48:c4:bc:
                    cc:1d:7f:c5:67:93:73:6a:4d:cb:2a:8b:ed:fb:22:
                    60:e9:a3:d9:00:99:5c:04:d3:04:e7:c7:b1:6b:42:
                    2c:06:b2:e3:ad:e1:c5:26:b7:ea:5b:73:9b:d5:a3:
                    00:12:51:18:b8:48:bf:57:8a:99:b2:b6:b5:c4:92:
                    eb:0d:50:76:05:48:3a:5e:b2:2e:e5:b2:f6:36:c1:
                    54:55:14:fc:4b:81:83:8f:23:cc:64:f3:d0:cc:71:
                    f6:a7
                Exponent: 65537 (0x10001)
        X509v3 extensions:
            X509v3 Basic Constraints: 
                CA:FALSE
            X509v3 Subject Key Identifier: 
                BB:AC:07:A7:E7:F6:80:60:28:01:C0:5E:82:17:17:87:84:60:51:32
            X509v3 Authority Key Identifier: 
                keyid:F2:DD:F2:52:D7:4F:98:AF:62:1D:34:4A:EE:F8:4C:9E:6E:C3:16:62
                DirName:/CN=MaVPN
                serial:6B:63:C7:C9:25:14:21:5E:38:06:08:99:8B:79:8D:EE:88:11:47:64

            X509v3 Extended Key Usage: 
                TLS Web Client Authentication
            X509v3 Key Usage: 
                Digital Signature
    Signature Algorithm: sha256WithRSAEncryption
         60:94:98:4a:d6:e1:85:43:bb:f5:05:16:85:cf:3b:29:1a:87:
         63:9e:20:83:e8:25:a9:cd:58:ba:29:4f:3b:3e:35:5a:a1:86:
         80:2b:26:d6:97:b7:be:01:69:25:8f:6d:c5:5c:b2:37:84:cf:
         c4:db:ff:b3:6b:89:22:d4:bd:c1:59:09:34:42:8a:d2:ca:0a:
         36:bd:d6:7d:c4:1d:73:69:43:bd:45:6b:b4:90:c9:ff:a1:1d:
         32:4e:11:01:45:58:95:3f:51:0c:c0:78:ad:5c:b1:d8:73:78:
         2a:ec:3d:08:71:29:b7:b2:ed:d0:eb:8c:3a:4d:b1:d7:2e:73:
         43:d8:be:21:ce:96:24:e7:4e:8c:b8:8b:d2:f9:6b:e9:98:8d:
         29:1e:e8:c7:bc:08:4b:d2:98:b9:e0:46:94:97:28:c6:ef:e3:
         a9:17:0e:b3:de:1d:6a:b0:a3:eb:6d:4d:bb:0f:87:23:44:24:
         65:ff:e4:c9:ce:a5:b7:eb:a9:fe:cf:da:d7:99:bb:82:87:5b:
         6c:53:76:6f:37:aa:cf:ab:f9:48:81:6f:fe:17:97:15:bc:f0:
         d4:8e:5f:fd:4e:12:8b:0c:9c:4d:71:95:f1:0b:4d:d0:2d:4b:
         64:d7:c6:1a:7f:c2:84:77:cd:08:00:32:fc:5c:78:f1:2d:ae:
         f6:78:05:80
-----BEGIN CERTIFICATE-----
MIIDSTCCAjGgAwIBAgIRAJ6+P7mHNoFSkhnHinAnVwswDQYJKoZIhvcNAQELBQAw
EDEOMAwGA1UEAwwFTWFWUE4wHhcNMjAwMTA2MDMzMTEwWhcNMjIxMjIxMDMzMTEw
WjARMQ8wDQYDVQQDDAZjbGllbnQwggEiMA0GCSqGSIb3DQEBAQUAA4IBDwAwggEK
AoIBAQC2qhUGFhrK4ZmN7zVysLD1eLvPXsPto4oWnSnTKoFq1eYJ+gFXqYaUeJ8P
lxWrSF9RSmIt+r50Z5vU794spNJk+yWzp/yG01A6DXFYAG1lyiVuioRpvTGjR5+L
iR+tqt0BF24p+F3cVhfyD2x0SVYHyfeXUbT7bXUUWLNLeCSx0VT/b88VqS3k9Y5k
pLVv6z8tnWNJvAgLOKZdMb3N+NiVqkjEvMwdf8Vnk3NqTcsqi+37ImDpo9kAmVwE
0wTnx7FrQiwGsuOt4cUmt+pbc5vVowASURi4SL9XipmytrXEkusNUHYFSDpesi7l
svY2wVRVFPxLgYOPI8xk89DMcfanAgMBAAGjgZwwgZkwCQYDVR0TBAIwADAdBgNV
HQ4EFgQUu6wHp+f2gGAoAcBeghcXh4RgUTIwSwYDVR0jBEQwQoAU8t3yUtdPmK9i
HTRK7vhMnm7DFmKhFKQSMBAxDjAMBgNVBAMMBU1hVlBOghRrY8fJJRQhXjgGCJmL
eY3uiBFHZDATBgNVHSUEDDAKBggrBgEFBQcDAjALBgNVHQ8EBAMCB4AwDQYJKoZI
hvcNAQELBQADggEBAGCUmErW4YVDu/UFFoXPOykah2OeIIPoJanNWLopTzs+NVqh
hoArJtaXt74BaSWPbcVcsjeEz8Tb/7NriSLUvcFZCTRCitLKCja91n3EHXNpQ71F
a7SQyf+hHTJOEQFFWJU/UQzAeK1csdhzeCrsPQhxKbey7dDrjDpNsdcuc0PYviHO
liTnToy4i9L5a+mYjSke6Me8CEvSmLngRpSXKMbv46kXDrPeHWqwo+ttTbsPhyNE
JGX/5MnOpbfrqf7P2teZu4KHW2xTdm83qs+r+UiBb/4XlxW88NSOX/1OEosMnE1x
lfELTdAtS2TXxhp/woR3zQgAMvxcePEtrvZ4BYA=
-----END CERTIFICATE-----
