Certificate:
    Data:
        Version: 3 (0x2)
        Serial Number:
            ae:f7:4f:3a:5e:d0:3a:8a:e1:57:f7:74:7f:42:76:33
        Signature Algorithm: sha256WithRSAEncryption
        Issuer: CN=MaVPN
        Validity
            Not Before: Jan  6 02:16:33 2020 GMT
            Not After : Dec 21 02:16:33 2022 GMT
        Subject: CN=server
        Subject Public Key Info:
            Public Key Algorithm: rsaEncryption
                RSA Public-Key: (2048 bit)
                Modulus:
                    00:cd:a3:d2:dc:84:d2:a7:35:b4:72:81:e7:53:bc:
                    1c:3f:e3:8d:3f:ef:17:c5:c1:7a:31:f4:b6:3c:13:
                    db:f3:d1:10:3d:c4:46:5b:ba:50:ae:6e:fe:a7:01:
                    51:46:23:df:c5:93:a3:b5:3a:7a:d0:b1:47:ea:e9:
                    2b:df:e8:ae:d0:0b:e7:2c:67:d5:a7:57:25:0a:28:
                    53:e1:af:38:e7:19:9b:65:66:cf:e0:30:b9:88:eb:
                    98:a7:94:9c:0e:7d:68:a6:9d:29:35:a3:a3:0f:06:
                    f2:e7:9c:2e:71:2f:72:9a:c6:b6:e9:71:39:83:a5:
                    6e:58:2e:6c:57:1d:60:59:e8:76:50:c6:45:9d:b6:
                    17:72:62:c3:9b:2c:cc:82:6b:93:b9:0e:61:54:b6:
                    ba:c3:9e:46:b8:3e:b5:09:d4:a7:e8:d0:55:70:7c:
                    b5:ea:f0:0a:6f:8a:34:70:80:df:76:f9:bf:c8:25:
                    6a:d8:23:f6:89:09:7f:64:50:2f:5a:22:52:dc:54:
                    bc:fe:c3:82:00:e5:7a:8f:66:08:5c:d3:fb:c9:9d:
                    02:a5:f4:a5:20:3b:04:8e:27:04:80:ac:e7:e5:a1:
                    70:91:d1:a7:dc:15:3c:f8:b0:2a:8d:28:a5:44:79:
                    07:c0:11:e6:c8:33:29:37:51:c9:6d:1c:1d:e8:cf:
                    c3:39
                Exponent: 65537 (0x10001)
        X509v3 extensions:
            X509v3 Basic Constraints: 
                CA:FALSE
            X509v3 Subject Key Identifier: 
                3B:BC:BE:FA:9A:6F:E5:80:B9:81:C6:9B:3A:54:ED:06:71:A7:1C:65
            X509v3 Authority Key Identifier: 
                keyid:F2:DD:F2:52:D7:4F:98:AF:62:1D:34:4A:EE:F8:4C:9E:6E:C3:16:62
                DirName:/CN=MaVPN
                serial:6B:63:C7:C9:25:14:21:5E:38:06:08:99:8B:79:8D:EE:88:11:47:64

            X509v3 Extended Key Usage: 
                TLS Web Server Authentication
            X509v3 Key Usage: 
                Digital Signature, Key Encipherment
            X509v3 Subject Alternative Name: 
                DNS:server
    Signature Algorithm: sha256WithRSAEncryption
         ad:84:3f:0c:70:8a:3d:4d:f9:89:eb:d1:84:4d:bf:f0:52:1d:
         c4:af:ff:01:d8:88:b9:3b:9f:63:1c:4a:ff:0b:5d:7d:4b:5d:
         94:b2:18:1f:3e:0c:dc:4f:9c:ea:d9:dc:3f:ef:99:c0:3c:e1:
         11:7c:aa:59:51:43:7a:54:e0:b8:b0:57:81:d4:b2:95:82:f3:
         79:36:26:59:23:5f:c5:be:e0:1a:ea:dd:de:0d:f7:35:19:df:
         ff:86:3a:7e:d1:a1:e8:95:60:52:01:07:41:62:4e:ef:c6:a3:
         d2:6d:73:f7:c6:fd:78:ea:58:ca:92:23:71:38:b4:36:10:21:
         45:df:86:d2:ff:1c:36:8c:9a:2c:52:83:59:80:3d:a7:c7:ff:
         83:73:0d:d4:1e:02:c2:13:4e:a8:c7:83:83:70:36:df:ec:5e:
         92:fc:f6:13:e9:ab:b4:4a:95:95:8c:2b:72:d2:bd:75:04:2a:
         b0:06:d3:93:3c:a9:3d:cd:ee:fe:50:e1:e7:df:d0:5f:87:14:
         a9:d6:c0:97:e9:06:f5:fa:62:b5:af:47:65:08:a5:9d:21:58:
         df:e4:d9:ae:f6:27:d3:8b:ac:1a:e6:65:79:1e:b4:4b:e3:b9:
         ac:e5:8a:6b:b5:40:1b:87:97:12:73:66:89:30:12:89:1c:08:
         d7:60:8c:4c
-----BEGIN CERTIFICATE-----
MIIDXDCCAkSgAwIBAgIRAK73Tzpe0DqK4Vf3dH9CdjMwDQYJKoZIhvcNAQELBQAw
EDEOMAwGA1UEAwwFTWFWUE4wHhcNMjAwMTA2MDIxNjMzWhcNMjIxMjIxMDIxNjMz
WjARMQ8wDQYDVQQDDAZzZXJ2ZXIwggEiMA0GCSqGSIb3DQEBAQUAA4IBDwAwggEK
AoIBAQDNo9LchNKnNbRygedTvBw/440/7xfFwXox9LY8E9vz0RA9xEZbulCubv6n
AVFGI9/Fk6O1OnrQsUfq6Svf6K7QC+csZ9WnVyUKKFPhrzjnGZtlZs/gMLmI65in
lJwOfWimnSk1o6MPBvLnnC5xL3KaxrbpcTmDpW5YLmxXHWBZ6HZQxkWdthdyYsOb
LMyCa5O5DmFUtrrDnka4PrUJ1Kfo0FVwfLXq8ApvijRwgN92+b/IJWrYI/aJCX9k
UC9aIlLcVLz+w4IA5XqPZghc0/vJnQKl9KUgOwSOJwSArOfloXCR0afcFTz4sCqN
KKVEeQfAEebIMyk3UcltHB3oz8M5AgMBAAGjga8wgawwCQYDVR0TBAIwADAdBgNV
HQ4EFgQUO7y++ppv5YC5gcabOlTtBnGnHGUwSwYDVR0jBEQwQoAU8t3yUtdPmK9i
HTRK7vhMnm7DFmKhFKQSMBAxDjAMBgNVBAMMBU1hVlBOghRrY8fJJRQhXjgGCJmL
eY3uiBFHZDATBgNVHSUEDDAKBggrBgEFBQcDATALBgNVHQ8EBAMCBaAwEQYDVR0R
BAowCIIGc2VydmVyMA0GCSqGSIb3DQEBCwUAA4IBAQCthD8McIo9TfmJ69GETb/w
Uh3Er/8B2Ii5O59jHEr/C119S12UshgfPgzcT5zq2dw/75nAPOERfKpZUUN6VOC4
sFeB1LKVgvN5NiZZI1/FvuAa6t3eDfc1Gd//hjp+0aHolWBSAQdBYk7vxqPSbXP3
xv146ljKkiNxOLQ2ECFF34bS/xw2jJosUoNZgD2nx/+Dcw3UHgLCE06ox4ODcDbf
7F6S/PYT6au0SpWVjCty0r11BCqwBtOTPKk9ze7+UOHn39BfhxSp1sCX6Qb1+mK1
r0dlCKWdIVjf5Nmu9ifTi6wa5mV5HrRL47ms5YprtUAbh5cSc2aJMBKJHAjXYIxM
-----END CERTIFICATE-----
