Certificate:
    Data:
        Version: 3 (0x2)
        Serial Number:
            e4:5e:a7:04:70:61:d5:97:12:a8:32:cb:30:52:d8:54
        Signature Algorithm: sha256WithRSAEncryption
        Issuer: CN=MaVPNCA
        Validity
            Not Before: Feb 14 16:31:32 2020 GMT
            Not After : Jan 29 16:31:32 2023 GMT
        Subject: CN=client
        Subject Public Key Info:
            Public Key Algorithm: rsaEncryption
                RSA Public-Key: (2048 bit)
                Modulus:
                    00:d0:fa:ff:70:e1:26:4f:ea:94:81:97:f2:d8:4d:
                    81:99:b1:3c:c7:78:98:07:dc:02:87:09:1d:6c:02:
                    87:cb:52:7e:af:44:9b:0d:41:d3:98:06:01:5d:45:
                    85:19:f6:9a:a1:c4:ca:88:ab:64:10:1f:72:73:d7:
                    d5:f9:f6:c8:e0:70:e0:e5:01:54:43:c4:a9:04:78:
                    c5:33:c9:9d:06:4b:1d:9f:81:5c:76:cb:52:3d:f8:
                    e7:fe:56:35:b6:55:57:37:d9:9d:52:cc:ec:2a:ad:
                    b0:d1:93:44:ed:24:1f:3e:4b:06:e9:0a:60:5f:82:
                    ac:ab:2d:cd:b1:10:42:c3:8f:24:18:4f:9d:7d:29:
                    f6:44:a3:45:4d:ad:2b:93:ef:db:07:08:6d:f0:5b:
                    d1:68:24:44:4a:9d:2d:67:77:78:03:b1:bc:2b:c7:
                    02:55:71:2f:3a:5d:43:85:38:0d:c1:c8:30:3b:3b:
                    79:45:d6:f5:d4:bb:b9:59:41:bd:8d:2b:4a:0a:a6:
                    03:03:5a:dc:b3:7b:7d:c0:c6:4f:4a:5c:98:3f:c9:
                    cc:2e:63:e7:6a:f5:6c:63:9e:0d:73:e4:22:ac:d6:
                    17:bd:55:ca:fc:92:ca:0b:db:e7:19:bb:fa:ce:03:
                    77:e0:30:e9:68:ec:d8:1e:93:6a:48:ae:c9:c3:8e:
                    2b:81
                Exponent: 65537 (0x10001)
        X509v3 extensions:
            X509v3 Basic Constraints: 
                CA:FALSE
            X509v3 Subject Key Identifier: 
                1E:C9:CE:22:5E:63:3F:36:EF:37:DD:9E:3B:70:B9:48:92:AC:0C:40
            X509v3 Authority Key Identifier: 
                keyid:B6:CF:2C:8C:71:85:C5:4B:61:CC:50:EE:A6:38:CD:14:A5:FB:58:7D
                DirName:/CN=MaVPNCA
                serial:2D:9D:E4:8C:D8:E6:E5:6B:69:F3:7E:C4:38:D5:24:07:64:85:DB:B5

            X509v3 Extended Key Usage: 
                TLS Web Client Authentication
            X509v3 Key Usage: 
                Digital Signature
    Signature Algorithm: sha256WithRSAEncryption
         02:d6:bf:dc:97:da:b4:23:d0:b3:69:b5:97:64:16:07:31:cd:
         43:eb:4c:db:42:fe:92:a6:22:ea:aa:16:ef:da:28:ce:97:bb:
         3f:f2:86:c5:c9:c2:a8:ab:d1:55:37:7a:97:89:f8:b9:99:4d:
         65:3a:30:01:15:33:cb:fb:89:5a:ef:50:af:92:2e:be:b5:a1:
         0e:7e:3e:35:22:f8:e4:8b:71:00:0c:57:90:ec:37:ea:b4:52:
         73:02:6c:6e:63:f5:d6:d9:00:d1:17:bc:13:ef:00:c9:b5:1a:
         3c:3a:3a:08:23:8f:92:17:8c:f1:b0:60:00:ec:28:8f:f1:07:
         66:24:96:44:a7:14:f6:c1:73:55:31:75:18:ed:89:9f:b9:4f:
         3b:fd:6c:e5:06:1d:1c:00:b8:d8:de:fb:91:f6:74:c7:5b:fb:
         86:5f:e6:f8:8a:c3:54:6b:aa:df:d2:bf:ef:3d:09:66:1a:78:
         c2:ea:70:cb:af:a5:51:bc:fd:9e:27:42:a9:df:5e:74:27:40:
         5e:33:ba:98:22:78:5f:44:08:65:a6:7e:a5:14:ed:90:49:0c:
         5b:67:61:a2:a7:04:42:28:75:c8:af:db:3e:d2:82:09:7a:d7:
         17:ec:8a:06:20:2a:48:fd:0c:83:78:5c:f1:11:14:3a:de:5e:
         79:9c:bc:c2
-----BEGIN CERTIFICATE-----
MIIDTTCCAjWgAwIBAgIRAORepwRwYdWXEqgyyzBS2FQwDQYJKoZIhvcNAQELBQAw
EjEQMA4GA1UEAwwHTWFWUE5DQTAeFw0yMDAyMTQxNjMxMzJaFw0yMzAxMjkxNjMx
MzJaMBExDzANBgNVBAMMBmNsaWVudDCCASIwDQYJKoZIhvcNAQEBBQADggEPADCC
AQoCggEBAND6/3DhJk/qlIGX8thNgZmxPMd4mAfcAocJHWwCh8tSfq9Emw1B05gG
AV1FhRn2mqHEyoirZBAfcnPX1fn2yOBw4OUBVEPEqQR4xTPJnQZLHZ+BXHbLUj34
5/5WNbZVVzfZnVLM7CqtsNGTRO0kHz5LBukKYF+CrKstzbEQQsOPJBhPnX0p9kSj
RU2tK5Pv2wcIbfBb0WgkREqdLWd3eAOxvCvHAlVxLzpdQ4U4DcHIMDs7eUXW9dS7
uVlBvY0rSgqmAwNa3LN7fcDGT0pcmD/JzC5j52r1bGOeDXPkIqzWF71VyvySygvb
5xm7+s4Dd+Aw6Wjs2B6TakiuycOOK4ECAwEAAaOBnjCBmzAJBgNVHRMEAjAAMB0G
A1UdDgQWBBQeyc4iXmM/Nu833Z47cLlIkqwMQDBNBgNVHSMERjBEgBS2zyyMcYXF
S2HMUO6mOM0UpftYfaEWpBQwEjEQMA4GA1UEAwwHTWFWUE5DQYIULZ3kjNjm5Wtp
837EONUkB2SF27UwEwYDVR0lBAwwCgYIKwYBBQUHAwIwCwYDVR0PBAQDAgeAMA0G
CSqGSIb3DQEBCwUAA4IBAQAC1r/cl9q0I9CzabWXZBYHMc1D60zbQv6SpiLqqhbv
2ijOl7s/8obFycKoq9FVN3qXifi5mU1lOjABFTPL+4la71Cvki6+taEOfj41Ivjk
i3EADFeQ7DfqtFJzAmxuY/XW2QDRF7wT7wDJtRo8OjoII4+SF4zxsGAA7CiP8Qdm
JJZEpxT2wXNVMXUY7YmfuU87/WzlBh0cALjY3vuR9nTHW/uGX+b4isNUa6rf0r/v
PQlmGnjC6nDLr6VRvP2eJ0Kp3150J0BeM7qYInhfRAhlpn6lFO2QSQxbZ2GipwRC
KHXIr9s+0oIJetcX7IoGICpI/QyDeFzxERQ63l55nLzC
-----END CERTIFICATE-----
