Certificate:
    Data:
        Version: 3 (0x2)
        Serial Number:
            09:9a:ee:d7:28:f1:b2:c2:7e:8f:92:eb:b4:c5:6c:f1
        Signature Algorithm: sha256WithRSAEncryption
        Issuer: CN=MaVPNCA
        Validity
            Not Before: Feb 14 16:13:11 2020 GMT
            Not After : Jan 29 16:13:11 2023 GMT
        Subject: CN=server
        Subject Public Key Info:
            Public Key Algorithm: rsaEncryption
                RSA Public-Key: (2048 bit)
                Modulus:
                    00:d9:88:07:6a:4b:4c:6a:99:32:91:6a:bc:4e:10:
                    43:44:ba:6d:0b:49:8f:44:19:6e:2e:ae:13:98:a5:
                    df:0a:1a:e2:60:20:a4:6d:3c:ee:34:a7:17:50:33:
                    bc:8d:1c:fe:fb:13:2d:6d:4c:82:12:46:59:cb:76:
                    35:30:07:f0:1a:e3:f1:e7:84:04:7c:62:80:65:53:
                    dd:d2:ed:de:c1:06:e3:51:57:2b:e0:b1:61:9a:1b:
                    11:f5:4d:30:4d:34:1d:a7:32:17:6b:db:9d:a2:4a:
                    23:26:93:4d:bc:3b:3f:91:e7:a2:a0:56:56:fd:89:
                    92:1c:91:5f:b9:11:ba:af:b6:69:a4:66:7b:0d:19:
                    6a:6a:a9:a0:e7:a0:9b:da:e9:b2:01:ec:9d:38:10:
                    59:51:ea:cc:6c:0d:93:ba:ed:69:d9:f0:cb:ab:7c:
                    4d:40:20:df:4d:ce:96:0f:83:23:55:88:19:b7:dc:
                    97:f0:51:17:0e:3b:de:9b:4d:ea:d8:c5:a7:a6:da:
                    df:f8:8c:0b:ef:2f:b1:14:c8:e1:c3:9f:40:62:c9:
                    4f:c6:45:a0:2b:8b:9d:88:77:88:0a:19:26:4e:8a:
                    5c:43:f7:28:8b:89:6e:99:da:e9:f6:91:bc:4c:a5:
                    ff:fb:f9:6e:8d:be:fd:3b:66:48:c3:bd:b0:ab:99:
                    08:ef
                Exponent: 65537 (0x10001)
        X509v3 extensions:
            X509v3 Basic Constraints: 
                CA:FALSE
            X509v3 Subject Key Identifier: 
                68:22:FF:F8:4B:1D:73:22:05:C2:E8:53:F0:43:39:45:A5:32:F7:7F
            X509v3 Authority Key Identifier: 
                keyid:B6:CF:2C:8C:71:85:C5:4B:61:CC:50:EE:A6:38:CD:14:A5:FB:58:7D
                DirName:/CN=MaVPNCA
                serial:2D:9D:E4:8C:D8:E6:E5:6B:69:F3:7E:C4:38:D5:24:07:64:85:DB:B5

            X509v3 Extended Key Usage: 
                TLS Web Server Authentication
            X509v3 Key Usage: 
                Digital Signature, Key Encipherment
            X509v3 Subject Alternative Name: 
                DNS:server
    Signature Algorithm: sha256WithRSAEncryption
         0f:ec:75:26:ad:ba:ec:d0:ca:21:6f:67:4d:ef:80:76:6e:b7:
         e1:38:21:10:19:52:86:66:89:2f:37:cb:dd:d2:0d:ab:c1:c1:
         d6:d1:c6:af:f3:4a:4a:28:56:af:83:9a:9f:b9:fa:fd:85:f7:
         bd:8b:bb:7c:f8:a0:41:a6:9b:dd:55:42:b4:9c:b2:f9:ec:94:
         72:b4:e3:37:75:9a:ce:d6:ea:9e:31:d9:87:7c:2d:44:75:61:
         f3:a3:c8:3a:95:1e:6b:fb:62:1d:7c:63:22:55:1f:e4:55:8a:
         4d:46:fc:fc:35:c6:68:8a:bc:35:a9:2c:58:c2:85:a5:ed:6b:
         5f:95:71:0e:6b:72:b4:18:55:c2:e7:48:59:cc:0d:95:5e:d8:
         99:47:b7:77:05:a2:36:46:75:9e:d5:59:4e:e2:2a:4e:ea:72:
         5d:67:aa:d6:8d:f2:b3:ea:0c:ca:e3:a9:fb:10:f4:75:1d:1e:
         9f:53:a3:b8:9b:e9:a7:84:09:e2:32:f0:b9:09:e5:22:0b:d8:
         3a:b1:d5:90:2d:19:c9:62:7a:21:d2:0b:3c:d8:a0:b9:aa:f0:
         66:9e:88:36:96:02:1c:ce:27:25:49:08:fc:2e:a4:b8:32:68:
         42:6f:f5:45:81:2b:ad:86:8b:c1:dd:86:24:88:29:0c:bf:92:
         b0:01:cf:e5
-----BEGIN CERTIFICATE-----
MIIDXzCCAkegAwIBAgIQCZru1yjxssJ+j5LrtMVs8TANBgkqhkiG9w0BAQsFADAS
MRAwDgYDVQQDDAdNYVZQTkNBMB4XDTIwMDIxNDE2MTMxMVoXDTIzMDEyOTE2MTMx
MVowETEPMA0GA1UEAwwGc2VydmVyMIIBIjANBgkqhkiG9w0BAQEFAAOCAQ8AMIIB
CgKCAQEA2YgHaktMapkykWq8ThBDRLptC0mPRBluLq4TmKXfChriYCCkbTzuNKcX
UDO8jRz++xMtbUyCEkZZy3Y1MAfwGuPx54QEfGKAZVPd0u3ewQbjUVcr4LFhmhsR
9U0wTTQdpzIXa9udokojJpNNvDs/keeioFZW/YmSHJFfuRG6r7ZppGZ7DRlqaqmg
56Cb2umyAeydOBBZUerMbA2Tuu1p2fDLq3xNQCDfTc6WD4MjVYgZt9yX8FEXDjve
m03q2MWnptrf+IwL7y+xFMjhw59AYslPxkWgK4udiHeIChkmTopcQ/coi4lumdrp
9pG8TKX/+/lujb79O2ZIw72wq5kI7wIDAQABo4GxMIGuMAkGA1UdEwQCMAAwHQYD
VR0OBBYEFGgi//hLHXMiBcLoU/BDOUWlMvd/ME0GA1UdIwRGMESAFLbPLIxxhcVL
YcxQ7qY4zRSl+1h9oRakFDASMRAwDgYDVQQDDAdNYVZQTkNBghQtneSM2Obla2nz
fsQ41SQHZIXbtTATBgNVHSUEDDAKBggrBgEFBQcDATALBgNVHQ8EBAMCBaAwEQYD
VR0RBAowCIIGc2VydmVyMA0GCSqGSIb3DQEBCwUAA4IBAQAP7HUmrbrs0Mohb2dN
74B2brfhOCEQGVKGZokvN8vd0g2rwcHW0cav80pKKFavg5qfufr9hfe9i7t8+KBB
ppvdVUK0nLL57JRytOM3dZrO1uqeMdmHfC1EdWHzo8g6lR5r+2IdfGMiVR/kVYpN
Rvz8NcZoirw1qSxYwoWl7WtflXEOa3K0GFXC50hZzA2VXtiZR7d3BaI2RnWe1VlO
4ipO6nJdZ6rWjfKz6gzK46n7EPR1HR6fU6O4m+mnhAniMvC5CeUiC9g6sdWQLRnJ
Ynoh0gs82KC5qvBmnog2lgIcziclSQj8LqS4MmhCb/VFgSuthovB3YYkiCkMv5Kw
Ac/l
-----END CERTIFICATE-----
